ARM GAS  C:\Users\marco\AppData\Local\Temp\ccdDjyDB.s 			page 1


   1              		.syntax unified
   2              		.cpu cortex-m3
   3              		.fpu softvfp
   4              		.eabi_attribute 20, 1
   5              		.eabi_attribute 21, 1
   6              		.eabi_attribute 23, 3
   7              		.eabi_attribute 24, 1
   8              		.eabi_attribute 25, 1
   9              		.eabi_attribute 26, 1
  10              		.eabi_attribute 30, 1
  11              		.eabi_attribute 34, 1
  12              		.eabi_attribute 18, 4
  13              		.thumb
  14              		.syntax unified
  15              		.file	"main.c"
  16              		.text
  17              	.Ltext0:
  18              		.cfi_sections	.debug_frame
  19              		.section	.text.main,"ax",%progbits
  20              		.align	2
  21              		.global	main
  22              		.thumb
  23              		.thumb_func
  24              		.type	main, %function
  25              	main:
  26              	.LFB64:
  27              		.file 1 "main.c"
   1:main.c        **** /**
   2:main.c        **** * 
   3:main.c        **** * \file main.c
   4:main.c        **** * In this project we set up a I2C master device and communicate with a 
   5:main.c        **** * I2C Slave device (LIS3DH Accelerometer).This project shows indeed how 
   6:main.c        **** * to test the capabilities of the LIS3DH accelerometer.  The output is a
   7:main.c        **** * 3-Axis Signal in 'Normal Mode' configuration at 100Hz. The adjacent registers 
   8:main.c        **** * are specifically read in sequence thanks to the implementation of a multiread 
   9:main.c        **** * function. The output values then, according to UART communication protocol,  
  10:main.c        **** * are sent to the Bridge Control Panel software in order to be plotted. The
  11:main.c        **** * BAUD rate is set to 9600 bps and it is sufficient since we are sending about
  12:main.c        **** * 6400 bps.
  13:main.c        **** *
  14:main.c        **** * \Author Marco Sinatra
  15:main.c        **** */
  16:main.c        **** 
  17:main.c        **** // Include required header files
  18:main.c        **** #include "I2C_Interface.h"
  19:main.c        **** #include "project.h"
  20:main.c        **** #include "stdio.h"
  21:main.c        **** #include "variable_definition.h"
  22:main.c        **** 
  23:main.c        **** int main(void)
  24:main.c        **** {
  28              		.loc 1 24 0
  29              		.cfi_startproc
  30              		@ args = 0, pretend = 0, frame = 72
  31              		@ frame_needed = 0, uses_anonymous_args = 0
  32 0000 30B5     		push	{r4, r5, lr}
  33              		.cfi_def_cfa_offset 12
ARM GAS  C:\Users\marco\AppData\Local\Temp\ccdDjyDB.s 			page 2


  34              		.cfi_offset 4, -12
  35              		.cfi_offset 5, -8
  36              		.cfi_offset 14, -4
  37 0002 93B0     		sub	sp, sp, #76
  38              		.cfi_def_cfa_offset 88
  25:main.c        ****     CyGlobalIntEnable; /* Enable global interrupts. */
  39              		.loc 1 25 0
  40              		.syntax unified
  41              	@ 25 "main.c" 1
  42 0004 62B6     		CPSIE   i
  43              	@ 0 "" 2
  26:main.c        **** 
  27:main.c        ****     /* Place your initialization/startup code here (e.g. MyInst_Start()) */
  28:main.c        ****     I2C_Peripheral_Start();
  44              		.loc 1 28 0
  45              		.thumb
  46              		.syntax unified
  47 0006 FFF7FEFF 		bl	I2C_Peripheral_Start
  48              	.LVL0:
  29:main.c        ****     UART_Debug_Start();
  49              		.loc 1 29 0
  50 000a FFF7FEFF 		bl	UART_Debug_Start
  51              	.LVL1:
  30:main.c        ****     
  31:main.c        ****     CyDelay(5); //"The boot procedure is complete about 5 milliseconds after device power-up."
  52              		.loc 1 31 0
  53 000e 0520     		movs	r0, #5
  54 0010 FFF7FEFF 		bl	CyDelay
  55              	.LVL2:
  56              	.LBB2:
  32:main.c        ****     
  33:main.c        ****     // String to print out messages on the UART
  34:main.c        ****     char message[50];
  35:main.c        **** 
  36:main.c        ****     // Check which devices are present on the I2C bus
  37:main.c        ****     for (int i = 0 ; i < 128; i++)
  57              		.loc 1 37 0
  58 0014 0024     		movs	r4, #0
  59 0016 0CE0     		b	.L2
  60              	.LVL3:
  61              	.L4:
  38:main.c        ****     {
  39:main.c        ****         if (I2C_Peripheral_IsDeviceConnected(i))
  62              		.loc 1 39 0
  63 0018 E0B2     		uxtb	r0, r4
  64 001a FFF7FEFF 		bl	I2C_Peripheral_IsDeviceConnected
  65              	.LVL4:
  66 001e 38B1     		cbz	r0, .L3
  40:main.c        ****         {
  41:main.c        ****             // print out the address is hex format
  42:main.c        ****             sprintf(message, "Device 0x%02X is connected\r\n", i);
  67              		.loc 1 42 0
  68 0020 2246     		mov	r2, r4
  69 0022 8349     		ldr	r1, .L26
  70 0024 05A8     		add	r0, sp, #20
  71 0026 FFF7FEFF 		bl	sprintf
  72              	.LVL5:
ARM GAS  C:\Users\marco\AppData\Local\Temp\ccdDjyDB.s 			page 3


  43:main.c        ****             UART_Debug_PutString(message); 
  73              		.loc 1 43 0
  74 002a 05A8     		add	r0, sp, #20
  75 002c FFF7FEFF 		bl	UART_Debug_PutString
  76              	.LVL6:
  77              	.L3:
  37:main.c        ****     {
  78              		.loc 1 37 0 discriminator 2
  79 0030 0134     		adds	r4, r4, #1
  80              	.LVL7:
  81              	.L2:
  37:main.c        ****     {
  82              		.loc 1 37 0 is_stmt 0 discriminator 1
  83 0032 7F2C     		cmp	r4, #127
  84 0034 F0DD     		ble	.L4
  85              	.LBE2:
  44:main.c        ****         }
  45:main.c        ****         
  46:main.c        ****     }
  47:main.c        ****     
  48:main.c        ****     /******************************************/
  49:main.c        ****     /*            I2C Reading                 */
  50:main.c        ****     /******************************************/
  51:main.c        ****     
  52:main.c        ****     /* Read WHO AM I REGISTER register */
  53:main.c        ****     uint8_t who_am_i_reg;
  54:main.c        ****     ErrorCode error = I2C_Peripheral_ReadRegister(LIS3DH_DEVICE_ADDRESS,
  86              		.loc 1 54 0 is_stmt 1
  87 0036 0DF11302 		add	r2, sp, #19
  88 003a 0F21     		movs	r1, #15
  89 003c 1820     		movs	r0, #24
  90 003e FFF7FEFF 		bl	I2C_Peripheral_ReadRegister
  91              	.LVL8:
  55:main.c        ****                                                   LIS3DH_WHO_AM_I_REG_ADDR, 
  56:main.c        ****                                                   &who_am_i_reg);
  57:main.c        ****     if (error == NO_ERROR)
  92              		.loc 1 57 0
  93 0042 48B9     		cbnz	r0, .L5
  58:main.c        ****     {
  59:main.c        ****         sprintf(message, "WHO AM I REG: 0x%02X [Expected: 0x33]\r\n", who_am_i_reg);
  94              		.loc 1 59 0
  95 0044 9DF81320 		ldrb	r2, [sp, #19]	@ zero_extendqisi2
  96 0048 7A49     		ldr	r1, .L26+4
  97 004a 05A8     		add	r0, sp, #20
  98              	.LVL9:
  99 004c FFF7FEFF 		bl	sprintf
 100              	.LVL10:
  60:main.c        ****         UART_Debug_PutString(message); 
 101              		.loc 1 60 0
 102 0050 05A8     		add	r0, sp, #20
 103 0052 FFF7FEFF 		bl	UART_Debug_PutString
 104              	.LVL11:
 105 0056 02E0     		b	.L6
 106              	.LVL12:
 107              	.L5:
  61:main.c        ****     }
  62:main.c        ****     else
ARM GAS  C:\Users\marco\AppData\Local\Temp\ccdDjyDB.s 			page 4


  63:main.c        ****     {
  64:main.c        ****         UART_Debug_PutString("Error occurred during I2C comm\r\n");   
 108              		.loc 1 64 0
 109 0058 7748     		ldr	r0, .L26+8
 110              	.LVL13:
 111 005a FFF7FEFF 		bl	UART_Debug_PutString
 112              	.LVL14:
 113              	.L6:
  65:main.c        ****     }
  66:main.c        ****     
  67:main.c        ****     /*      I2C Reading Status Register       */
  68:main.c        ****     
  69:main.c        ****     uint8_t status_register; 
  70:main.c        ****     error = I2C_Peripheral_ReadRegister(LIS3DH_DEVICE_ADDRESS,
 114              		.loc 1 70 0
 115 005e 0DF11202 		add	r2, sp, #18
 116 0062 2721     		movs	r1, #39
 117 0064 1820     		movs	r0, #24
 118 0066 FFF7FEFF 		bl	I2C_Peripheral_ReadRegister
 119              	.LVL15:
  71:main.c        ****                                         LIS3DH_STATUS_REG,
  72:main.c        ****                                         &status_register);
  73:main.c        ****     
  74:main.c        ****     if (error == NO_ERROR)
 120              		.loc 1 74 0
 121 006a 48B9     		cbnz	r0, .L7
  75:main.c        ****     {
  76:main.c        ****         sprintf(message, "STATUS REGISTER: 0x%02X\r\n", status_register);
 122              		.loc 1 76 0
 123 006c 9DF81220 		ldrb	r2, [sp, #18]	@ zero_extendqisi2
 124 0070 7249     		ldr	r1, .L26+12
 125 0072 05A8     		add	r0, sp, #20
 126              	.LVL16:
 127 0074 FFF7FEFF 		bl	sprintf
 128              	.LVL17:
  77:main.c        ****         UART_Debug_PutString(message); 
 129              		.loc 1 77 0
 130 0078 05A8     		add	r0, sp, #20
 131 007a FFF7FEFF 		bl	UART_Debug_PutString
 132              	.LVL18:
 133 007e 02E0     		b	.L8
 134              	.LVL19:
 135              	.L7:
  78:main.c        ****     }
  79:main.c        ****     else
  80:main.c        ****     {
  81:main.c        ****         UART_Debug_PutString("Error occurred during I2C comm to read status register\r\n");   
 136              		.loc 1 81 0
 137 0080 6F48     		ldr	r0, .L26+16
 138              	.LVL20:
 139 0082 FFF7FEFF 		bl	UART_Debug_PutString
 140              	.LVL21:
 141              	.L8:
  82:main.c        ****     }
  83:main.c        ****     
  84:main.c        ****     /******************************************/
  85:main.c        ****     /*        Read Control Register 1         */
ARM GAS  C:\Users\marco\AppData\Local\Temp\ccdDjyDB.s 			page 5


  86:main.c        ****     /******************************************/
  87:main.c        ****     uint8_t ctrl_reg1; 
  88:main.c        ****     error = I2C_Peripheral_ReadRegister(LIS3DH_DEVICE_ADDRESS,
 142              		.loc 1 88 0
 143 0086 0DF11102 		add	r2, sp, #17
 144 008a 2021     		movs	r1, #32
 145 008c 1820     		movs	r0, #24
 146 008e FFF7FEFF 		bl	I2C_Peripheral_ReadRegister
 147              	.LVL22:
  89:main.c        ****                                         LIS3DH_CTRL_REG1,
  90:main.c        ****                                         &ctrl_reg1);
  91:main.c        ****     
  92:main.c        ****     if (error == NO_ERROR)
 148              		.loc 1 92 0
 149 0092 48B9     		cbnz	r0, .L9
  93:main.c        ****     {
  94:main.c        ****         sprintf(message, "CONTROL REGISTER 1: 0x%02X\r\n", ctrl_reg1);
 150              		.loc 1 94 0
 151 0094 9DF81120 		ldrb	r2, [sp, #17]	@ zero_extendqisi2
 152 0098 6A49     		ldr	r1, .L26+20
 153 009a 05A8     		add	r0, sp, #20
 154              	.LVL23:
 155 009c FFF7FEFF 		bl	sprintf
 156              	.LVL24:
  95:main.c        ****         UART_Debug_PutString(message); 
 157              		.loc 1 95 0
 158 00a0 05A8     		add	r0, sp, #20
 159 00a2 FFF7FEFF 		bl	UART_Debug_PutString
 160              	.LVL25:
 161 00a6 02E0     		b	.L10
 162              	.LVL26:
 163              	.L9:
  96:main.c        ****     }
  97:main.c        ****     else
  98:main.c        ****     {
  99:main.c        ****         UART_Debug_PutString("Error occurred during I2C comm to read control register 1\r\n");   
 164              		.loc 1 99 0
 165 00a8 6748     		ldr	r0, .L26+24
 166              	.LVL27:
 167 00aa FFF7FEFF 		bl	UART_Debug_PutString
 168              	.LVL28:
 169              	.L10:
 100:main.c        ****     }
 101:main.c        ****     
 102:main.c        ****     /******************************************/
 103:main.c        ****     /*            I2C Writing                 */
 104:main.c        ****     /******************************************/
 105:main.c        ****     
 106:main.c        ****         
 107:main.c        ****     UART_Debug_PutString("\r\nWriting new values..\r\n");
 170              		.loc 1 107 0
 171 00ae 6748     		ldr	r0, .L26+28
 172 00b0 FFF7FEFF 		bl	UART_Debug_PutString
 173              	.LVL29:
 108:main.c        ****     
 109:main.c        ****     if (ctrl_reg1 != LIS3DH_NORMAL_MODE_CTRL_REG1)
 174              		.loc 1 109 0
ARM GAS  C:\Users\marco\AppData\Local\Temp\ccdDjyDB.s 			page 6


 175 00b4 9DF81130 		ldrb	r3, [sp, #17]	@ zero_extendqisi2
 176 00b8 572B     		cmp	r3, #87
 177 00ba 14D0     		beq	.L11
 110:main.c        ****     {
 111:main.c        ****         ctrl_reg1 = LIS3DH_NORMAL_MODE_CTRL_REG1;
 178              		.loc 1 111 0
 179 00bc 5722     		movs	r2, #87
 180 00be 8DF81120 		strb	r2, [sp, #17]
 112:main.c        ****     
 113:main.c        ****         error = I2C_Peripheral_WriteRegister(LIS3DH_DEVICE_ADDRESS,
 181              		.loc 1 113 0
 182 00c2 2021     		movs	r1, #32
 183 00c4 1820     		movs	r0, #24
 184 00c6 FFF7FEFF 		bl	I2C_Peripheral_WriteRegister
 185              	.LVL30:
 114:main.c        ****                                              LIS3DH_CTRL_REG1,
 115:main.c        ****                                              ctrl_reg1);
 116:main.c        ****     
 117:main.c        ****         if (error == NO_ERROR)
 186              		.loc 1 117 0
 187 00ca 48B9     		cbnz	r0, .L12
 118:main.c        ****         {
 119:main.c        ****             sprintf(message, "CONTROL REGISTER 1 successfully written as: 0x%02X\r\n", ctrl_reg1);
 188              		.loc 1 119 0
 189 00cc 9DF81120 		ldrb	r2, [sp, #17]	@ zero_extendqisi2
 190 00d0 5F49     		ldr	r1, .L26+32
 191 00d2 05A8     		add	r0, sp, #20
 192              	.LVL31:
 193 00d4 FFF7FEFF 		bl	sprintf
 194              	.LVL32:
 120:main.c        ****             UART_Debug_PutString(message); 
 195              		.loc 1 120 0
 196 00d8 05A8     		add	r0, sp, #20
 197 00da FFF7FEFF 		bl	UART_Debug_PutString
 198              	.LVL33:
 199 00de 02E0     		b	.L11
 200              	.LVL34:
 201              	.L12:
 121:main.c        ****         }
 122:main.c        ****         else
 123:main.c        ****         {
 124:main.c        ****             UART_Debug_PutString("Error occurred during I2C comm to set control register 1\r\n");  
 202              		.loc 1 124 0
 203 00e0 5C48     		ldr	r0, .L26+36
 204              	.LVL35:
 205 00e2 FFF7FEFF 		bl	UART_Debug_PutString
 206              	.LVL36:
 207              	.L11:
 125:main.c        ****         }
 126:main.c        ****     }
 127:main.c        ****     
 128:main.c        ****     /******************************************/
 129:main.c        ****     /*     Read Control Register 1 again      */
 130:main.c        ****     /******************************************/
 131:main.c        **** 
 132:main.c        ****     error = I2C_Peripheral_ReadRegister(LIS3DH_DEVICE_ADDRESS,
 208              		.loc 1 132 0
ARM GAS  C:\Users\marco\AppData\Local\Temp\ccdDjyDB.s 			page 7


 209 00e6 0DF11102 		add	r2, sp, #17
 210 00ea 2021     		movs	r1, #32
 211 00ec 1820     		movs	r0, #24
 212 00ee FFF7FEFF 		bl	I2C_Peripheral_ReadRegister
 213              	.LVL37:
 133:main.c        ****                                         LIS3DH_CTRL_REG1,
 134:main.c        ****                                         &ctrl_reg1);
 135:main.c        ****     
 136:main.c        ****     if (error == NO_ERROR)
 214              		.loc 1 136 0
 215 00f2 48B9     		cbnz	r0, .L13
 137:main.c        ****     {
 138:main.c        ****         sprintf(message, "CONTROL REGISTER 1 after overwrite operation: 0x%02X\r\n", ctrl_reg1);
 216              		.loc 1 138 0
 217 00f4 9DF81120 		ldrb	r2, [sp, #17]	@ zero_extendqisi2
 218 00f8 5749     		ldr	r1, .L26+40
 219 00fa 05A8     		add	r0, sp, #20
 220              	.LVL38:
 221 00fc FFF7FEFF 		bl	sprintf
 222              	.LVL39:
 139:main.c        ****         UART_Debug_PutString(message); 
 223              		.loc 1 139 0
 224 0100 05A8     		add	r0, sp, #20
 225 0102 FFF7FEFF 		bl	UART_Debug_PutString
 226              	.LVL40:
 227 0106 02E0     		b	.L14
 228              	.LVL41:
 229              	.L13:
 140:main.c        ****     }
 141:main.c        ****     else
 142:main.c        ****     {
 143:main.c        ****         UART_Debug_PutString("Error occurred during I2C comm to read control register 1\r\n");   
 230              		.loc 1 143 0
 231 0108 4F48     		ldr	r0, .L26+24
 232              	.LVL42:
 233 010a FFF7FEFF 		bl	UART_Debug_PutString
 234              	.LVL43:
 235              	.L14:
 144:main.c        ****     }
 145:main.c        ****     
 146:main.c        **** 
 147:main.c        ****     
 148:main.c        ****     uint8_t ctrl_reg4;
 149:main.c        **** 
 150:main.c        ****     error = I2C_Peripheral_ReadRegister(LIS3DH_DEVICE_ADDRESS,
 236              		.loc 1 150 0
 237 010e 04AA     		add	r2, sp, #16
 238 0110 2321     		movs	r1, #35
 239 0112 1820     		movs	r0, #24
 240 0114 FFF7FEFF 		bl	I2C_Peripheral_ReadRegister
 241              	.LVL44:
 151:main.c        ****                                         LIS3DH_CTRL_REG4,
 152:main.c        ****                                         &ctrl_reg4);
 153:main.c        ****     
 154:main.c        ****     if (error == NO_ERROR)
 242              		.loc 1 154 0
 243 0118 48B9     		cbnz	r0, .L15
ARM GAS  C:\Users\marco\AppData\Local\Temp\ccdDjyDB.s 			page 8


 155:main.c        ****     {
 156:main.c        ****         sprintf(message, "CONTROL REGISTER 4: 0x%02X\r\n", ctrl_reg4);
 244              		.loc 1 156 0
 245 011a 9DF81020 		ldrb	r2, [sp, #16]	@ zero_extendqisi2
 246 011e 4F49     		ldr	r1, .L26+44
 247 0120 05A8     		add	r0, sp, #20
 248              	.LVL45:
 249 0122 FFF7FEFF 		bl	sprintf
 250              	.LVL46:
 157:main.c        ****         UART_Debug_PutString(message); 
 251              		.loc 1 157 0
 252 0126 05A8     		add	r0, sp, #20
 253 0128 FFF7FEFF 		bl	UART_Debug_PutString
 254              	.LVL47:
 255 012c 02E0     		b	.L16
 256              	.LVL48:
 257              	.L15:
 158:main.c        ****     }
 159:main.c        ****     else
 160:main.c        ****     {
 161:main.c        ****         UART_Debug_PutString("Error occurred during I2C comm to read control register4\r\n");   
 258              		.loc 1 161 0
 259 012e 4C48     		ldr	r0, .L26+48
 260              	.LVL49:
 261 0130 FFF7FEFF 		bl	UART_Debug_PutString
 262              	.LVL50:
 263              	.L16:
 162:main.c        ****     }
 163:main.c        ****     
 164:main.c        ****     
 165:main.c        ****     ctrl_reg4 = LIS3DH_CTRL_REG4_BDU_ACTIVE; // must be changed to the appropriate value
 264              		.loc 1 165 0
 265 0134 8022     		movs	r2, #128
 266 0136 12AC     		add	r4, sp, #72
 267              	.LVL51:
 268 0138 04F8382D 		strb	r2, [r4, #-56]!
 166:main.c        ****     
 167:main.c        ****     error = I2C_Peripheral_WriteRegister(LIS3DH_DEVICE_ADDRESS,
 269              		.loc 1 167 0
 270 013c 2321     		movs	r1, #35
 271 013e 1820     		movs	r0, #24
 272 0140 FFF7FEFF 		bl	I2C_Peripheral_WriteRegister
 273              	.LVL52:
 168:main.c        ****                                          LIS3DH_CTRL_REG4,
 169:main.c        ****                                          ctrl_reg4);
 170:main.c        ****     
 171:main.c        ****     error = I2C_Peripheral_ReadRegister(LIS3DH_DEVICE_ADDRESS,
 274              		.loc 1 171 0
 275 0144 2246     		mov	r2, r4
 276 0146 2321     		movs	r1, #35
 277 0148 1820     		movs	r0, #24
 278 014a FFF7FEFF 		bl	I2C_Peripheral_ReadRegister
 279              	.LVL53:
 172:main.c        ****                                         LIS3DH_CTRL_REG4,
 173:main.c        ****                                         &ctrl_reg4);
 174:main.c        ****     
 175:main.c        ****     
ARM GAS  C:\Users\marco\AppData\Local\Temp\ccdDjyDB.s 			page 9


 176:main.c        ****     if (error == NO_ERROR)
 280              		.loc 1 176 0
 281 014e 48B9     		cbnz	r0, .L17
 177:main.c        ****     {
 178:main.c        ****         sprintf(message, "CONTROL REGISTER 4 after being updated: 0x%02X\r\n", ctrl_reg4);
 282              		.loc 1 178 0
 283 0150 9DF81020 		ldrb	r2, [sp, #16]	@ zero_extendqisi2
 284 0154 4349     		ldr	r1, .L26+52
 285 0156 05A8     		add	r0, sp, #20
 286              	.LVL54:
 287 0158 FFF7FEFF 		bl	sprintf
 288              	.LVL55:
 179:main.c        ****         UART_Debug_PutString(message); 
 289              		.loc 1 179 0
 290 015c 05A8     		add	r0, sp, #20
 291 015e FFF7FEFF 		bl	UART_Debug_PutString
 292              	.LVL56:
 293 0162 02E0     		b	.L18
 294              	.LVL57:
 295              	.L17:
 180:main.c        ****     }
 181:main.c        ****     else
 182:main.c        ****     {
 183:main.c        ****         UART_Debug_PutString("Error occurred during I2C comm to read control register4\r\n");   
 296              		.loc 1 183 0
 297 0164 3E48     		ldr	r0, .L26+48
 298              	.LVL58:
 299 0166 FFF7FEFF 		bl	UART_Debug_PutString
 300              	.LVL59:
 301              	.L18:
 184:main.c        ****     }
 185:main.c        ****     
 186:main.c        ****     
 187:main.c        ****     
 188:main.c        ****     /***************************************************/
 189:main.c        ****     /*   variable declaration and for(;;) definition)  */
 190:main.c        ****     /***************************************************/
 191:main.c        ****     
 192:main.c        ****     int16_t Out_Acc_X; //X-axis accelerometer value in integer
 193:main.c        ****     int16_t Out_Acc_Y; //Y-axis accelerometer value in integer
 194:main.c        ****     int16_t Out_Acc_Z; //Z-axis accelerometer value in integer
 195:main.c        ****     uint8_t OutArray[TRANSMIT_BUFFER_SIZE]; //Array of dimension 'TRANSMIT_BUFFER_SIZE' containing 
 196:main.c        ****     uint8_t register_count = 5; //Number of registers to be read in sequence (exluding the first pa
 197:main.c        ****     uint8_t AccData[6]; //Array storing the info read from the 6 adjacent registers
 198:main.c        ****     uint8_t header = 0xA0;
 199:main.c        ****     uint8_t footer = 0xC0;
 200:main.c        ****     
 201:main.c        **** 
 202:main.c        ****     /*Setup header and tail*/
 203:main.c        ****     OutArray[0] = header; //Header
 302              		.loc 1 203 0
 303 016a A023     		movs	r3, #160
 304 016c 8DF80830 		strb	r3, [sp, #8]
 204:main.c        ****     OutArray[TRANSMIT_BUFFER_SIZE-1] = footer; //Tail
 305              		.loc 1 204 0
 306 0170 C023     		movs	r3, #192
 307 0172 8DF80F30 		strb	r3, [sp, #15]
ARM GAS  C:\Users\marco\AppData\Local\Temp\ccdDjyDB.s 			page 10


 308              	.L19:
 205:main.c        ****     
 206:main.c        ****     for(;;)
 207:main.c        ****     {
 208:main.c        ****         /*    I2C Reading Status Register     */         
 209:main.c        ****         error = I2C_Peripheral_ReadRegister(LIS3DH_DEVICE_ADDRESS,
 309              		.loc 1 209 0
 310 0176 0DF11202 		add	r2, sp, #18
 311 017a 2721     		movs	r1, #39
 312 017c 1820     		movs	r0, #24
 313 017e FFF7FEFF 		bl	I2C_Peripheral_ReadRegister
 314              	.LVL60:
 210:main.c        ****                                         LIS3DH_STATUS_REG,
 211:main.c        ****                                         &status_register);
 212:main.c        ****         
 213:main.c        ****         /*  Check if a new set of data is available  */        
 214:main.c        ****         if (status_register & (1 << ZYXDA))
 315              		.loc 1 214 0
 316 0182 9DF81230 		ldrb	r3, [sp, #18]	@ zero_extendqisi2
 317 0186 13F0080F 		tst	r3, #8
 318 018a F4D0     		beq	.L19
 215:main.c        ****         {   
 216:main.c        ****             //read the adjacent registers
 217:main.c        ****             error = I2C_Peripheral_ReadRegisterMulti(LIS3DH_DEVICE_ADDRESS,
 319              		.loc 1 217 0
 320 018c 6B46     		mov	r3, sp
 321 018e 0522     		movs	r2, #5
 322 0190 2821     		movs	r1, #40
 323 0192 1820     		movs	r0, #24
 324 0194 FFF7FEFF 		bl	I2C_Peripheral_ReadRegisterMulti
 325              	.LVL61:
 218:main.c        ****                                                 LIS3DH_OUT_X_L,
 219:main.c        ****                                                 register_count,
 220:main.c        ****                                                 &AccData[0]);
 221:main.c        ****             
 222:main.c        ****             if(error == NO_ERROR)
 326              		.loc 1 222 0
 327 0198 0028     		cmp	r0, #0
 328 019a ECD1     		bne	.L19
 223:main.c        ****             {
 224:main.c        ****                 /* Raw values coming from the accelerometerValues cover a full scale range that goe
 225:main.c        ****                 (hence, in acceleration unit, ±2 mg). Dividing by a factor of 256 and multipliyng 
 226:main.c        ****                 new full scall range which goes from +2000 mg to -2000mg */
 227:main.c        **** 
 228:main.c        ****                 
 229:main.c        ****                 /*  X-AXIS  */
 230:main.c        ****                 Out_Acc_X = (int16)((AccData[0] | (AccData[1]<<8)))>>6; //Right justified 16bit int
 329              		.loc 1 230 0
 330 019c 9DF80030 		ldrb	r3, [sp]	@ zero_extendqisi2
 331 01a0 9DF80120 		ldrb	r2, [sp, #1]	@ zero_extendqisi2
 332 01a4 43EA0223 		orr	r3, r3, r2, lsl #8
 333 01a8 43F38913 		sbfx	r3, r3, #6, #10
 334              	.LVL62:
 231:main.c        ****                 Out_Acc_X = Out_Acc_X * CONVERSION_FACTOR;
 335              		.loc 1 231 0
 336 01ac 4FF47A72 		mov	r2, #1000
 337 01b0 02FB03F3 		mul	r3, r2, r3
ARM GAS  C:\Users\marco\AppData\Local\Temp\ccdDjyDB.s 			page 11


 338              	.LVL63:
 339 01b4 002B     		cmp	r3, #0
 340 01b6 00DA     		bge	.L21
 341 01b8 FF33     		adds	r3, r3, #255
 342              	.L21:
 343 01ba 1812     		asrs	r0, r3, #8
 344              	.LVL64:
 345 01bc 04B2     		sxth	r4, r0
 346              	.LVL65:
 232:main.c        ****                 /*  Y-AXIS  */           
 233:main.c        ****                 Out_Acc_Y = (int16)((AccData[2] | (AccData[3]<<8)))>>6; //Right justified 16bit int
 347              		.loc 1 233 0
 348 01be 9DF80230 		ldrb	r3, [sp, #2]	@ zero_extendqisi2
 349 01c2 9DF80320 		ldrb	r2, [sp, #3]	@ zero_extendqisi2
 350 01c6 43EA0223 		orr	r3, r3, r2, lsl #8
 351 01ca 43F38912 		sbfx	r2, r3, #6, #10
 352              	.LVL66:
 234:main.c        ****                 Out_Acc_Y = Out_Acc_Y * CONVERSION_FACTOR;
 353              		.loc 1 234 0
 354 01ce 4FF47A73 		mov	r3, #1000
 355 01d2 03FB02F3 		mul	r3, r3, r2
 356 01d6 002B     		cmp	r3, #0
 357 01d8 00DA     		bge	.L22
 358 01da FF33     		adds	r3, r3, #255
 359              	.L22:
 360 01dc 1A12     		asrs	r2, r3, #8
 361              	.LVL67:
 362 01de 15B2     		sxth	r5, r2
 363              	.LVL68:
 235:main.c        ****                 
 236:main.c        ****                 /*  Z-AXIS  */           
 237:main.c        ****                 Out_Acc_Z = (int16)((AccData[4] | (AccData[5]<<8)))>>6; //Right justified 16bit int
 364              		.loc 1 237 0
 365 01e0 9DF80430 		ldrb	r3, [sp, #4]	@ zero_extendqisi2
 366 01e4 9DF80510 		ldrb	r1, [sp, #5]	@ zero_extendqisi2
 367 01e8 43EA0123 		orr	r3, r3, r1, lsl #8
 368 01ec 43F38911 		sbfx	r1, r3, #6, #10
 369              	.LVL69:
 238:main.c        ****                 Out_Acc_Z = Out_Acc_Z * CONVERSION_FACTOR;
 370              		.loc 1 238 0
 371 01f0 4FF47A73 		mov	r3, #1000
 372 01f4 03FB01F3 		mul	r3, r3, r1
 373 01f8 002B     		cmp	r3, #0
 374 01fa 00DA     		bge	.L23
 375 01fc FF33     		adds	r3, r3, #255
 376              	.L23:
 377 01fe 1B12     		asrs	r3, r3, #8
 378              	.LVL70:
 239:main.c        ****                 
 240:main.c        ****                 OutArray[1] = (uint8_t)(Out_Acc_X & 0xFF); //LSB of accelerometer X-axis
 379              		.loc 1 240 0
 380 0200 8DF80900 		strb	r0, [sp, #9]
 241:main.c        ****                 OutArray[2] = (uint8_t)(Out_Acc_X >> 8);   //MSB of accelerometer X-axis
 381              		.loc 1 241 0
 382 0204 C4F30724 		ubfx	r4, r4, #8, #8
 383              	.LVL71:
 384 0208 8DF80A40 		strb	r4, [sp, #10]
ARM GAS  C:\Users\marco\AppData\Local\Temp\ccdDjyDB.s 			page 12


 242:main.c        ****                 OutArray[3] = (uint8_t)(Out_Acc_Y & 0xFF); //LSB of accelerometer Y-axis
 385              		.loc 1 242 0
 386 020c 8DF80B20 		strb	r2, [sp, #11]
 243:main.c        ****                 OutArray[4] = (uint8_t)(Out_Acc_Y >> 8);   //LSB of accelerometer Y-axis
 387              		.loc 1 243 0
 388 0210 C5F30722 		ubfx	r2, r5, #8, #8
 389 0214 8DF80C20 		strb	r2, [sp, #12]
 244:main.c        ****                 OutArray[5] = (uint8_t)(Out_Acc_Z & 0xFF); //LSB of accelerometer Z-axis
 390              		.loc 1 244 0
 391 0218 8DF80D30 		strb	r3, [sp, #13]
 245:main.c        ****                 OutArray[6] = (uint8_t)(Out_Acc_Z >> 8);   //LSB of accelerometer Z-axis
 392              		.loc 1 245 0
 393 021c C3F30723 		ubfx	r3, r3, #8, #8
 394              	.LVL72:
 395 0220 8DF80E30 		strb	r3, [sp, #14]
 246:main.c        ****                 UART_Debug_PutArray(OutArray, TRANSMIT_BUFFER_SIZE);//Send information through UART
 396              		.loc 1 246 0
 397 0224 0821     		movs	r1, #8
 398 0226 0DEB0100 		add	r0, sp, r1
 399              	.LVL73:
 400 022a FFF7FEFF 		bl	UART_Debug_PutArray
 401              	.LVL74:
 402 022e A2E7     		b	.L19
 403              	.L27:
 404              		.align	2
 405              	.L26:
 406 0230 00000000 		.word	.LC0
 407 0234 20000000 		.word	.LC1
 408 0238 48000000 		.word	.LC2
 409 023c 6C000000 		.word	.LC3
 410 0240 88000000 		.word	.LC4
 411 0244 C4000000 		.word	.LC5
 412 0248 E4000000 		.word	.LC6
 413 024c 20010000 		.word	.LC7
 414 0250 3C010000 		.word	.LC8
 415 0254 74010000 		.word	.LC9
 416 0258 B0010000 		.word	.LC10
 417 025c E8010000 		.word	.LC11
 418 0260 08020000 		.word	.LC12
 419 0264 44020000 		.word	.LC13
 420              		.cfi_endproc
 421              	.LFE64:
 422              		.size	main, .-main
 423              		.section	.rodata.str1.4,"aMS",%progbits,1
 424              		.align	2
 425              	.LC0:
 426 0000 44657669 		.ascii	"Device 0x%02X is connected\015\012\000"
 426      63652030 
 426      78253032 
 426      58206973 
 426      20636F6E 
 427 001d 000000   		.space	3
 428              	.LC1:
 429 0020 57484F20 		.ascii	"WHO AM I REG: 0x%02X [Expected: 0x33]\015\012\000"
 429      414D2049 
 429      20524547 
 429      3A203078 
ARM GAS  C:\Users\marco\AppData\Local\Temp\ccdDjyDB.s 			page 13


 429      25303258 
 430              	.LC2:
 431 0048 4572726F 		.ascii	"Error occurred during I2C comm\015\012\000"
 431      72206F63 
 431      63757272 
 431      65642064 
 431      7572696E 
 432 0069 000000   		.space	3
 433              	.LC3:
 434 006c 53544154 		.ascii	"STATUS REGISTER: 0x%02X\015\012\000"
 434      55532052 
 434      45474953 
 434      5445523A 
 434      20307825 
 435 0086 0000     		.space	2
 436              	.LC4:
 437 0088 4572726F 		.ascii	"Error occurred during I2C comm to read status regis"
 437      72206F63 
 437      63757272 
 437      65642064 
 437      7572696E 
 438 00bb 7465720D 		.ascii	"ter\015\012\000"
 438      0A00
 439 00c1 000000   		.space	3
 440              	.LC5:
 441 00c4 434F4E54 		.ascii	"CONTROL REGISTER 1: 0x%02X\015\012\000"
 441      524F4C20 
 441      52454749 
 441      53544552 
 441      20313A20 
 442 00e1 000000   		.space	3
 443              	.LC6:
 444 00e4 4572726F 		.ascii	"Error occurred during I2C comm to read control regi"
 444      72206F63 
 444      63757272 
 444      65642064 
 444      7572696E 
 445 0117 73746572 		.ascii	"ster 1\015\012\000"
 445      20310D0A 
 445      00
 446              	.LC7:
 447 0120 0D0A5772 		.ascii	"\015\012Writing new values..\015\012\000"
 447      6974696E 
 447      67206E65 
 447      77207661 
 447      6C756573 
 448 0139 000000   		.space	3
 449              	.LC8:
 450 013c 434F4E54 		.ascii	"CONTROL REGISTER 1 successfully written as: 0x%02X\015"
 450      524F4C20 
 450      52454749 
 450      53544552 
 450      20312073 
 451 016f 0A00     		.ascii	"\012\000"
 452 0171 000000   		.space	3
 453              	.LC9:
 454 0174 4572726F 		.ascii	"Error occurred during I2C comm to set control regis"
ARM GAS  C:\Users\marco\AppData\Local\Temp\ccdDjyDB.s 			page 14


 454      72206F63 
 454      63757272 
 454      65642064 
 454      7572696E 
 455 01a7 74657220 		.ascii	"ter 1\015\012\000"
 455      310D0A00 
 456 01af 00       		.space	1
 457              	.LC10:
 458 01b0 434F4E54 		.ascii	"CONTROL REGISTER 1 after overwrite operation: 0x%02"
 458      524F4C20 
 458      52454749 
 458      53544552 
 458      20312061 
 459 01e3 580D0A00 		.ascii	"X\015\012\000"
 460 01e7 00       		.space	1
 461              	.LC11:
 462 01e8 434F4E54 		.ascii	"CONTROL REGISTER 4: 0x%02X\015\012\000"
 462      524F4C20 
 462      52454749 
 462      53544552 
 462      20343A20 
 463 0205 000000   		.space	3
 464              	.LC12:
 465 0208 4572726F 		.ascii	"Error occurred during I2C comm to read control regi"
 465      72206F63 
 465      63757272 
 465      65642064 
 465      7572696E 
 466 023b 73746572 		.ascii	"ster4\015\012\000"
 466      340D0A00 
 467 0243 00       		.space	1
 468              	.LC13:
 469 0244 434F4E54 		.ascii	"CONTROL REGISTER 4 after being updated: 0x%02X\015\012"
 469      524F4C20 
 469      52454749 
 469      53544552 
 469      20342061 
 470 0274 00       		.ascii	"\000"
 471              		.text
 472              	.Letext0:
 473              		.file 2 "c:\\program files (x86)\\cypress\\psoc creator\\4.3\\psoc creator\\import\\gnu\\arm\\5.4.
 474              		.file 3 "c:\\program files (x86)\\cypress\\psoc creator\\4.3\\psoc creator\\import\\gnu\\arm\\5.4.
 475              		.file 4 "Generated_Source\\PSoC5/cytypes.h"
 476              		.file 5 "ErrorCodes.h"
 477              		.file 6 "I2C_Interface.h"
 478              		.file 7 "c:\\program files (x86)\\cypress\\psoc creator\\4.3\\psoc creator\\import\\gnu\\arm\\5.4.
 479              		.file 8 "Generated_Source\\PSoC5/UART_Debug.h"
 480              		.file 9 "Generated_Source\\PSoC5/CyLib.h"
 481              		.file 10 "Generated_Source\\PSoC5/core_cm3.h"